target datalayout = "e-m:e-p270:32:32-p271:32:32-p272:64:64-i64:64-i128:128-f80:128-n8:16:32:64-S128"
target triple = "x86_64-pc-linux-gnu"

%struct.agxbuf = type { %union.anon }
%union.anon = type { %struct.anon }
%struct.anon = type { ptr, i64, i64, [7 x i8], i8 }

@stderr = external global ptr, align 8
@.str.1 = private unnamed_addr constant [58 x i8] c"integer overflow when trying to allocate %zu * %zu bytes\0A\00", align 1
@.str.2 = private unnamed_addr constant [49 x i8] c"out of memory when trying to allocate %zu bytes\0A\00", align 1

; Function Attrs: inlinehint nounwind uwtable
define internal ptr @gv_realloc(ptr noundef %0, i64 noundef %1, i64 noundef %2) #4 {
  %4 = alloca ptr, align 8
  %5 = alloca ptr, align 8
  %6 = alloca i64, align 8
  %7 = alloca i64, align 8
  %8 = alloca ptr, align 8
  store ptr %0, ptr %5, align 8, !tbaa !19
  store i64 %1, ptr %6, align 8, !tbaa !8
  store i64 %2, ptr %7, align 8, !tbaa !8
  %9 = load i64, ptr %7, align 8, !tbaa !8
  %10 = icmp eq i64 %9, 0
  br i1 %10, label %11, label %13

11:                                               ; preds = %3
  %12 = load ptr, ptr %5, align 8, !tbaa !19
  call void @free(ptr noundef %12) #11
  store ptr null, ptr %4, align 8
  br label %36

13:                                               ; preds = %3
  call void @llvm.lifetime.start.p0(i64 8, ptr %8) #11
  %14 = load ptr, ptr %5, align 8, !tbaa !19
  %15 = load i64, ptr %7, align 8, !tbaa !8
  %16 = call ptr @realloc(ptr noundef %14, i64 noundef %15) #16
  store ptr %16, ptr %8, align 8, !tbaa !19
  %17 = load ptr, ptr %8, align 8, !tbaa !19
  %18 = icmp eq ptr %17, null
  br i1 %18, label %19, label %23

19:                                               ; preds = %13
  %20 = load ptr, ptr @stderr, align 8, !tbaa !20
  %21 = load i64, ptr %7, align 8, !tbaa !8
  %22 = call i32 (ptr, ptr, ...) @fprintf(ptr noundef %20, ptr noundef @.str.2, i64 noundef %21) #11
  call void @graphviz_exit(i32 noundef 1) #13
  unreachable

23:                                               ; preds = %13
  %24 = load i64, ptr %7, align 8, !tbaa !8
  %25 = load i64, ptr %6, align 8, !tbaa !8
  %26 = icmp ugt i64 %24, %25
  br i1 %26, label %27, label %34

27:                                               ; preds = %23
  %28 = load ptr, ptr %8, align 8, !tbaa !19
  %29 = load i64, ptr %6, align 8, !tbaa !8
  %30 = getelementptr inbounds nuw i8, ptr %28, i64 %29
  %31 = load i64, ptr %7, align 8, !tbaa !8
  %32 = load i64, ptr %6, align 8, !tbaa !8
  %33 = sub i64 %31, %32
  call void @llvm.memset.p0.i64(ptr align 1 %30, i8 0, i64 %33, i1 false)
  br label %34

34:                                               ; preds = %27, %23
  %35 = load ptr, ptr %8, align 8, !tbaa !19
  store ptr %35, ptr %4, align 8
  call void @llvm.lifetime.end.p0(i64 8, ptr %8) #11
  br label %36

36:                                               ; preds = %34, %11
  %37 = load ptr, ptr %4, align 8
  ret ptr %37
}

; Function Attrs: inlinehint nounwind uwtable
define internal zeroext i1 @agxbuf_is_inline(ptr noundef %0) #4 {
  %2 = alloca ptr, align 8
  store ptr %0, ptr %2, align 8, !tbaa !19
  %3 = load ptr, ptr %2, align 8, !tbaa !19
  %4 = getelementptr inbounds nuw %struct.agxbuf, ptr %3, i32 0, i32 0
  %5 = getelementptr inbounds nuw %struct.anon, ptr %4, i32 0, i32 4
  %6 = load i8, ptr %5, align 1, !tbaa !12
  %7 = zext i8 %6 to i32
  %8 = icmp slt i32 %7, 255
  ret i1 %8
}

; Function Attrs: inlinehint nounwind uwtable
define internal ptr @gv_calloc(i64 noundef %0, i64 noundef %1) #4 {
  %3 = alloca i64, align 8
  %4 = alloca i64, align 8
  %5 = alloca ptr, align 8
  store i64 %0, ptr %3, align 8, !tbaa !8
  store i64 %1, ptr %4, align 8, !tbaa !8
  %6 = load i64, ptr %3, align 8, !tbaa !8
  %7 = icmp ugt i64 %6, 0
  br i1 %7, label %8, label %18

8:                                                ; preds = %2
  %9 = load i64, ptr %3, align 8, !tbaa !8
  %10 = udiv i64 -1, %9
  %11 = load i64, ptr %4, align 8, !tbaa !8
  %12 = icmp ult i64 %10, %11
  br i1 %12, label %13, label %18

13:                                               ; preds = %8
  %14 = load ptr, ptr @stderr, align 8, !tbaa !20
  %15 = load i64, ptr %3, align 8, !tbaa !8
  %16 = load i64, ptr %4, align 8, !tbaa !8
  %17 = call i32 (ptr, ptr, ...) @fprintf(ptr noundef %14, ptr noundef @.str.1, i64 noundef %15, i64 noundef %16) #11
  call void @graphviz_exit(i32 noundef 1) #13
  unreachable

18:                                               ; preds = %8, %2
  call void @llvm.lifetime.start.p0(i64 8, ptr %5) #11
  %19 = load i64, ptr %3, align 8, !tbaa !8
  %20 = load i64, ptr %4, align 8, !tbaa !8
  %21 = call noalias ptr @calloc(i64 noundef %19, i64 noundef %20) #14
  store ptr %21, ptr %5, align 8, !tbaa !19
  %22 = load i64, ptr %3, align 8, !tbaa !8
  %23 = icmp ugt i64 %22, 0
  br i1 %23, label %24, label %36

24:                                               ; preds = %18
  %25 = load i64, ptr %4, align 8, !tbaa !8
  %26 = icmp ugt i64 %25, 0
  br i1 %26, label %27, label %36

27:                                               ; preds = %24
  %28 = load ptr, ptr %5, align 8, !tbaa !19
  %29 = icmp eq ptr %28, null
  br i1 %29, label %30, label %36

30:                                               ; preds = %27
  %31 = load ptr, ptr @stderr, align 8, !tbaa !20
  %32 = load i64, ptr %3, align 8, !tbaa !8
  %33 = load i64, ptr %4, align 8, !tbaa !8
  %34 = mul i64 %32, %33
  %35 = call i32 (ptr, ptr, ...) @fprintf(ptr noundef %31, ptr noundef @.str.2, i64 noundef %34) #11
  call void @graphviz_exit(i32 noundef 1) #13
  unreachable

36:                                               ; preds = %27, %24, %18
  %37 = load ptr, ptr %5, align 8, !tbaa !19
  call void @llvm.lifetime.end.p0(i64 8, ptr %5) #11
  ret ptr %37
}

; Function Attrs: inlinehint nounwind uwtable
define internal ptr @gv_recalloc(ptr noundef %0, i64 noundef %1, i64 noundef %2, i64 noundef %3) #4 {
  %5 = alloca ptr, align 8
  %6 = alloca i64, align 8
  %7 = alloca i64, align 8
  %8 = alloca i64, align 8
  store ptr %0, ptr %5, align 8, !tbaa !19
  store i64 %1, ptr %6, align 8, !tbaa !8
  store i64 %2, ptr %7, align 8, !tbaa !8
  store i64 %3, ptr %8, align 8, !tbaa !8
  %9 = load i64, ptr %7, align 8, !tbaa !8
  %10 = load i64, ptr %8, align 8, !tbaa !8
  %11 = udiv i64 -1, %10
  %12 = icmp ugt i64 %9, %11
  br i1 %12, label %13, label %18

13:                                               ; preds = %4
  %14 = load ptr, ptr @stderr, align 8, !tbaa !20
  %15 = load i64, ptr %7, align 8, !tbaa !8
  %16 = load i64, ptr %8, align 8, !tbaa !8
  %17 = call i32 (ptr, ptr, ...) @fprintf(ptr noundef %14, ptr noundef @.str.1, i64 noundef %15, i64 noundef %16) #11
  call void @graphviz_exit(i32 noundef 1) #13
  unreachable

18:                                               ; preds = %4
  %19 = load ptr, ptr %5, align 8, !tbaa !19
  %20 = load i64, ptr %6, align 8, !tbaa !8
  %21 = load i64, ptr %8, align 8, !tbaa !8
  %22 = mul i64 %20, %21
  %23 = load i64, ptr %7, align 8, !tbaa !8
  %24 = load i64, ptr %8, align 8, !tbaa !8
  %25 = mul i64 %23, %24
  %26 = call ptr @gv_realloc(ptr noundef %19, i64 noundef %22, i64 noundef %25)
  ret ptr %26
}

; Function Attrs: inlinehint nounwind uwtable
define internal i64 @agxblen(ptr noundef %0) #4 {
  %2 = alloca i64, align 8
  %3 = alloca ptr, align 8
  store ptr %0, ptr %3, align 8, !tbaa !19
  %4 = load ptr, ptr %3, align 8, !tbaa !19
  %5 = call zeroext i1 @agxbuf_is_inline(ptr noundef %4)
  br i1 %5, label %6, label %14

6:                                                ; preds = %1
  %7 = load ptr, ptr %3, align 8, !tbaa !19
  %8 = getelementptr inbounds nuw %struct.agxbuf, ptr %7, i32 0, i32 0
  %9 = getelementptr inbounds nuw %struct.anon, ptr %8, i32 0, i32 4
  %10 = load i8, ptr %9, align 1, !tbaa !12
  %11 = zext i8 %10 to i32
  %12 = sub nsw i32 %11, 0
  %13 = sext i32 %12 to i64
  store i64 %13, ptr %2, align 8
  br label %19

14:                                               ; preds = %1
  %15 = load ptr, ptr %3, align 8, !tbaa !19
  %16 = getelementptr inbounds nuw %struct.agxbuf, ptr %15, i32 0, i32 0
  %17 = getelementptr inbounds nuw %struct.anon, ptr %16, i32 0, i32 1
  %18 = load i64, ptr %17, align 8, !tbaa !12
  store i64 %18, ptr %2, align 8
  br label %19

19:                                               ; preds = %14, %6
  %20 = load i64, ptr %2, align 8
  ret i64 %20
}

; Function Attrs: inlinehint nounwind uwtable
define internal i64 @agxbsizeof(ptr noundef %0) #4 {
  %2 = alloca i64, align 8
  %3 = alloca ptr, align 8
  store ptr %0, ptr %3, align 8, !tbaa !19
  %4 = load ptr, ptr %3, align 8, !tbaa !19
  %5 = call zeroext i1 @agxbuf_is_inline(ptr noundef %4)
  br i1 %5, label %6, label %7

6:                                                ; preds = %1
  store i64 31, ptr %2, align 8
  br label %12

7:                                                ; preds = %1
  %8 = load ptr, ptr %3, align 8, !tbaa !19
  %9 = getelementptr inbounds nuw %struct.agxbuf, ptr %8, i32 0, i32 0
  %10 = getelementptr inbounds nuw %struct.anon, ptr %9, i32 0, i32 2
  %11 = load i64, ptr %10, align 8, !tbaa !12
  store i64 %11, ptr %2, align 8
  br label %12

12:                                               ; preds = %7, %6
  %13 = load i64, ptr %2, align 8
  ret i64 %13
}

; Function Attrs: inlinehint nounwind uwtable
define internal void @agxbmore(ptr noundef %0, i64 noundef %1) #4 {
  %3 = alloca ptr, align 8
  %4 = alloca i64, align 8
  %5 = alloca i64, align 8
  %6 = alloca i64, align 8
  %7 = alloca i64, align 8
  %8 = alloca ptr, align 8
  store ptr %0, ptr %3, align 8, !tbaa !19
  store i64 %1, ptr %4, align 8, !tbaa !8
  call void @llvm.lifetime.start.p0(i64 8, ptr %5) #11
  store i64 0, ptr %5, align 8, !tbaa !8
  call void @llvm.lifetime.start.p0(i64 8, ptr %6) #11
  store i64 0, ptr %6, align 8, !tbaa !8
  call void @llvm.lifetime.start.p0(i64 8, ptr %7) #11
  store i64 0, ptr %7, align 8, !tbaa !8
  call void @llvm.lifetime.start.p0(i64 8, ptr %8) #11
  %9 = load ptr, ptr %3, align 8, !tbaa !19
  %10 = call i64 @agxbsizeof(ptr noundef %9)
  store i64 %10, ptr %6, align 8, !tbaa !8
  %11 = load i64, ptr %6, align 8, !tbaa !8
  %12 = icmp eq i64 %11, 0
  br i1 %12, label %13, label %14

13:                                               ; preds = %2
  br label %17

14:                                               ; preds = %2
  %15 = load i64, ptr %6, align 8, !tbaa !8
  %16 = mul i64 2, %15
  br label %17

17:                                               ; preds = %14, %13
  %18 = phi i64 [ 8192, %13 ], [ %16, %14 ]
  store i64 %18, ptr %7, align 8, !tbaa !8
  %19 = load i64, ptr %6, align 8, !tbaa !8
  %20 = load i64, ptr %4, align 8, !tbaa !8
  %21 = add i64 %19, %20
  %22 = load i64, ptr %7, align 8, !tbaa !8
  %23 = icmp ugt i64 %21, %22
  br i1 %23, label %24, label %28

24:                                               ; preds = %17
  %25 = load i64, ptr %6, align 8, !tbaa !8
  %26 = load i64, ptr %4, align 8, !tbaa !8
  %27 = add i64 %25, %26
  store i64 %27, ptr %7, align 8, !tbaa !8
  br label %28

28:                                               ; preds = %24, %17
  %29 = load ptr, ptr %3, align 8, !tbaa !19
  %30 = call i64 @agxblen(ptr noundef %29)
  store i64 %30, ptr %5, align 8, !tbaa !8
  %31 = load ptr, ptr %3, align 8, !tbaa !19
  %32 = getelementptr inbounds nuw %struct.agxbuf, ptr %31, i32 0, i32 0
  %33 = getelementptr inbounds nuw %struct.anon, ptr %32, i32 0, i32 4
  %34 = load i8, ptr %33, align 1, !tbaa !12
  %35 = zext i8 %34 to i32
  %36 = icmp eq i32 %35, 255
  br i1 %36, label %37, label %45

37:                                               ; preds = %28
  %38 = load ptr, ptr %3, align 8, !tbaa !19
  %39 = getelementptr inbounds nuw %struct.agxbuf, ptr %38, i32 0, i32 0
  %40 = getelementptr inbounds nuw %struct.anon, ptr %39, i32 0, i32 0
  %41 = load ptr, ptr %40, align 8, !tbaa !12
  %42 = load i64, ptr %6, align 8, !tbaa !8
  %43 = load i64, ptr %7, align 8, !tbaa !8
  %44 = call ptr @gv_recalloc(ptr noundef %41, i64 noundef %42, i64 noundef %43, i64 noundef 1)
  store ptr %44, ptr %8, align 8, !tbaa !3
  br label %57

45:                                               ; preds = %28
  %46 = load i64, ptr %7, align 8, !tbaa !8
  %47 = call ptr @gv_calloc(i64 noundef %46, i64 noundef 1)
  store ptr %47, ptr %8, align 8, !tbaa !3
  %48 = load ptr, ptr %8, align 8, !tbaa !3
  %49 = load ptr, ptr %3, align 8, !tbaa !19
  %50 = getelementptr inbounds nuw %struct.agxbuf, ptr %49, i32 0, i32 0
  %51 = getelementptr inbounds [31 x i8], ptr %50, i64 0, i64 0
  %52 = load i64, ptr %5, align 8, !tbaa !8
  call void @llvm.memcpy.p0.p0.i64(ptr align 1 %48, ptr align 8 %51, i64 %52, i1 false)
  %53 = load i64, ptr %5, align 8, !tbaa !8
  %54 = load ptr, ptr %3, align 8, !tbaa !19
  %55 = getelementptr inbounds nuw %struct.agxbuf, ptr %54, i32 0, i32 0
  %56 = getelementptr inbounds nuw %struct.anon, ptr %55, i32 0, i32 1
  store i64 %53, ptr %56, align 8, !tbaa !12
  br label %57

57:                                               ; preds = %45, %37
  %58 = load ptr, ptr %8, align 8, !tbaa !3
  %59 = load ptr, ptr %3, align 8, !tbaa !19
  %60 = getelementptr inbounds nuw %struct.agxbuf, ptr %59, i32 0, i32 0
  %61 = getelementptr inbounds nuw %struct.anon, ptr %60, i32 0, i32 0
  store ptr %58, ptr %61, align 8, !tbaa !12
  %62 = load i64, ptr %7, align 8, !tbaa !8
  %63 = load ptr, ptr %3, align 8, !tbaa !19
  %64 = getelementptr inbounds nuw %struct.agxbuf, ptr %63, i32 0, i32 0
  %65 = getelementptr inbounds nuw %struct.anon, ptr %64, i32 0, i32 2
  store i64 %62, ptr %65, align 8, !tbaa !12
  %66 = load ptr, ptr %3, align 8, !tbaa !19
  %67 = getelementptr inbounds nuw %struct.agxbuf, ptr %66, i32 0, i32 0
  %68 = getelementptr inbounds nuw %struct.anon, ptr %67, i32 0, i32 4
  store i8 -1, ptr %68, align 1, !tbaa !12
  call void @llvm.lifetime.end.p0(i64 8, ptr %8) #11
  call void @llvm.lifetime.end.p0(i64 8, ptr %7) #11
  call void @llvm.lifetime.end.p0(i64 8, ptr %6) #11
  call void @llvm.lifetime.end.p0(i64 8, ptr %5) #11
  ret void
}